target datalayout = "e-m:e-p270:32:32-p271:32:32-p272:64:64-i64:64-i128:128-f80:128-n8:16:32:64-S128"
target triple = "x86_64-unknown-linux-gnu"

%struct.tinfl_decompressor_tag = type { i32, i32, i32, i32, i32, i32, i32, i32, i32, i32, i32, [3 x i32], i64, i64, [3 x %struct.tinfl_huff_table], [4 x i8], [457 x i8] }
%struct.tinfl_huff_table = type { [288 x i8], [1024 x i16], [576 x i16] }

; Function Attrs: nounwind uwtable
define hidden ptr @tinfl_decompress_mem_to_heap(ptr noundef %pSrc_buf, i64 noundef %src_buf_len, ptr noundef %pOut_len, i32 noundef %flags) #0 {
entry:
  %retval = alloca ptr, align 8
  %pSrc_buf.addr = alloca ptr, align 8
  %src_buf_len.addr = alloca i64, align 8
  %pOut_len.addr = alloca ptr, align 8
  %flags.addr = alloca i32, align 4
  %decomp = alloca %struct.tinfl_decompressor_tag, align 8
  %pBuf = alloca ptr, align 8
  %pNew_buf = alloca ptr, align 8
  %src_buf_ofs = alloca i64, align 8
  %out_buf_capacity = alloca i64, align 8
  %src_buf_size = alloca i64, align 8
  %dst_buf_size = alloca i64, align 8
  %new_out_buf_capacity = alloca i64, align 8
  %status = alloca i32, align 4
  store ptr %pSrc_buf, ptr %pSrc_buf.addr, align 8
  store i64 %src_buf_len, ptr %src_buf_len.addr, align 8
  store ptr %pOut_len, ptr %pOut_len.addr, align 8
  store i32 %flags, ptr %flags.addr, align 4
  store ptr null, ptr %pBuf, align 8
  store i64 0, ptr %src_buf_ofs, align 8
  store i64 0, ptr %out_buf_capacity, align 8
  %0 = load ptr, ptr %pOut_len.addr, align 8
  store i64 0, ptr %0, align 8
  br label %do.body

do.body:                                          ; preds = %entry
  %m_state = getelementptr inbounds %struct.tinfl_decompressor_tag, ptr %decomp, i32 0, i32 0
  store i32 0, ptr %m_state, align 8
  br label %do.end

do.end:                                           ; preds = %do.body
  br label %for.cond

for.cond:                                         ; preds = %if.end14, %do.end
  %1 = load i64, ptr %src_buf_len.addr, align 8
  %2 = load i64, ptr %src_buf_ofs, align 8
  %sub = sub i64 %1, %2
  store i64 %sub, ptr %src_buf_size, align 8
  %3 = load i64, ptr %out_buf_capacity, align 8
  %4 = load ptr, ptr %pOut_len.addr, align 8
  %5 = load i64, ptr %4, align 8
  %sub1 = sub i64 %3, %5
  store i64 %sub1, ptr %dst_buf_size, align 8
  %6 = load ptr, ptr %pSrc_buf.addr, align 8
  %7 = load i64, ptr %src_buf_ofs, align 8
  %add.ptr = getelementptr inbounds i8, ptr %6, i64 %7
  %8 = load ptr, ptr %pBuf, align 8
  %9 = load ptr, ptr %pBuf, align 8
  %tobool = icmp ne ptr %9, null
  br i1 %tobool, label %cond.true, label %cond.false

cond.true:                                        ; preds = %for.cond
  %10 = load ptr, ptr %pBuf, align 8
  %11 = load ptr, ptr %pOut_len.addr, align 8
  %12 = load i64, ptr %11, align 8
  %add.ptr2 = getelementptr inbounds i8, ptr %10, i64 %12
  br label %cond.end

cond.false:                                       ; preds = %for.cond
  br label %cond.end

cond.end:                                         ; preds = %cond.false, %cond.true
  %cond = phi ptr [ %add.ptr2, %cond.true ], [ null, %cond.false ]
  %13 = load i32, ptr %flags.addr, align 4
  %and = and i32 %13, -3
  %or = or i32 %and, 4
  %call = call i32 @tinfl_decompress(ptr noundef %decomp, ptr noundef %add.ptr, ptr noundef %src_buf_size, ptr noundef %8, ptr noundef %cond, ptr noundef %dst_buf_size, i32 noundef %or)
  store i32 %call, ptr %status, align 4
  %14 = load i32, ptr %status, align 4
  %cmp = icmp slt i32 %14, 0
  br i1 %cmp, label %if.then, label %lor.lhs.false

lor.lhs.false:                                    ; preds = %cond.end
  %15 = load i32, ptr %status, align 4
  %cmp3 = icmp eq i32 %15, 1
  br i1 %cmp3, label %if.then, label %if.end

if.then:                                          ; preds = %lor.lhs.false, %cond.end
  %16 = load ptr, ptr %pBuf, align 8
  call void @free(ptr noundef %16) #10
  %17 = load ptr, ptr %pOut_len.addr, align 8
  store i64 0, ptr %17, align 8
  store ptr null, ptr %retval, align 8
  br label %return

if.end:                                           ; preds = %lor.lhs.false
  %18 = load i64, ptr %src_buf_size, align 8
  %19 = load i64, ptr %src_buf_ofs, align 8
  %add = add i64 %19, %18
  store i64 %add, ptr %src_buf_ofs, align 8
  %20 = load i64, ptr %dst_buf_size, align 8
  %21 = load ptr, ptr %pOut_len.addr, align 8
  %22 = load i64, ptr %21, align 8
  %add4 = add i64 %22, %20
  store i64 %add4, ptr %21, align 8
  %23 = load i32, ptr %status, align 4
  %cmp5 = icmp eq i32 %23, 0
  br i1 %cmp5, label %if.then6, label %if.end7

if.then6:                                         ; preds = %if.end
  br label %for.end

if.end7:                                          ; preds = %if.end
  %24 = load i64, ptr %out_buf_capacity, align 8
  %mul = mul i64 %24, 2
  store i64 %mul, ptr %new_out_buf_capacity, align 8
  %25 = load i64, ptr %new_out_buf_capacity, align 8
  %cmp8 = icmp ult i64 %25, 128
  br i1 %cmp8, label %if.then9, label %if.end10

if.then9:                                         ; preds = %if.end7
  store i64 128, ptr %new_out_buf_capacity, align 8
  br label %if.end10

if.end10:                                         ; preds = %if.then9, %if.end7
  %26 = load ptr, ptr %pBuf, align 8
  %27 = load i64, ptr %new_out_buf_capacity, align 8
  %call11 = call ptr @realloc(ptr noundef %26, i64 noundef %27) #12
  store ptr %call11, ptr %pNew_buf, align 8
  %28 = load ptr, ptr %pNew_buf, align 8
  %tobool12 = icmp ne ptr %28, null
  br i1 %tobool12, label %if.end14, label %if.then13

if.then13:                                        ; preds = %if.end10
  %29 = load ptr, ptr %pBuf, align 8
  call void @free(ptr noundef %29) #10
  %30 = load ptr, ptr %pOut_len.addr, align 8
  store i64 0, ptr %30, align 8
  store ptr null, ptr %retval, align 8
  br label %return

if.end14:                                         ; preds = %if.end10
  %31 = load ptr, ptr %pNew_buf, align 8
  store ptr %31, ptr %pBuf, align 8
  %32 = load i64, ptr %new_out_buf_capacity, align 8
  store i64 %32, ptr %out_buf_capacity, align 8
  br label %for.cond

for.end:                                          ; preds = %if.then6
  %33 = load ptr, ptr %pBuf, align 8
  store ptr %33, ptr %retval, align 8
  br label %return

return:                                           ; preds = %for.end, %if.then13, %if.then
  %34 = load ptr, ptr %retval, align 8
  ret ptr %34
}