; Function Attrs: nounwind uwtable
define hidden noundef ptr @tinfl_decompress_mem_to_heap(ptr noundef %pSrc_buf, i64 noundef %src_buf_len, ptr noundef captures(none) initializes((0, 8)) %pOut_len, i32 noundef %flags) local_unnamed_addr #4 {
entry:
  %decomp = alloca %struct.tinfl_decompressor_tag, align 8
  %src_buf_size = alloca i64, align 8
  %dst_buf_size = alloca i64, align 8
  store i64 0, ptr %pOut_len, align 8
  store i32 0, ptr %decomp, align 8
  %and20 = and i32 %flags, -7
  %or21 = or disjoint i32 %and20, 4
  br label %for.cond

for.cond:                                         ; preds = %if.end7, %entry
  %0 = phi i64 [ 0, %entry ], [ %add4, %if.end7 ]
  %pBuf.0 = phi ptr [ null, %entry ], [ %call11, %if.end7 ]
  %src_buf_ofs.0 = phi i64 [ 0, %entry ], [ %add, %if.end7 ]
  %out_buf_capacity.0 = phi i64 [ 0, %entry ], [ %spec.store.select, %if.end7 ]
  %sub = sub i64 %src_buf_len, %src_buf_ofs.0
  store i64 %sub, ptr %src_buf_size, align 8
  %sub1 = sub i64 %out_buf_capacity.0, %0
  store i64 %sub1, ptr %dst_buf_size, align 8
  %add.ptr = getelementptr inbounds i8, ptr %pSrc_buf, i64 %src_buf_ofs.0
  %tobool.not = icmp eq ptr %pBuf.0, null
  br i1 %tobool.not, label %for.cond.split, label %cond.true.split

for.cond.split:                                   ; preds = %for.cond
  %call25 = call i32 @tinfl_decompress(ptr noundef nonnull %decomp, ptr noundef %add.ptr, ptr noundef nonnull %src_buf_size, ptr noundef null, ptr noundef null, ptr noundef nonnull %dst_buf_size, i32 noundef %or21)
  br label %cond.end

cond.true.split:                                  ; preds = %for.cond
  %add.ptr2 = getelementptr inbounds i8, ptr %pBuf.0, i64 %0
  %call22 = call i32 @tinfl_decompress(ptr noundef nonnull %decomp, ptr noundef %add.ptr, ptr noundef nonnull %src_buf_size, ptr noundef nonnull %pBuf.0, ptr noundef nonnull %add.ptr2, ptr noundef nonnull %dst_buf_size, i32 noundef %or21)
  br label %cond.end

cond.end:                                         ; preds = %for.cond.split, %cond.true.split
  %phi.call = phi i32 [ %call22, %cond.true.split ], [ %call25, %for.cond.split ]
  %cmp = icmp slt i32 %phi.call, 0
  %cmp3 = icmp eq i32 %phi.call, 1
  %or.cond = or i1 %cmp, %cmp3
  br i1 %or.cond, label %return.sink.split, label %if.end

if.end:                                           ; preds = %cond.end
  %1 = load i64, ptr %src_buf_size, align 8
  %2 = load i64, ptr %dst_buf_size, align 8
  %3 = load i64, ptr %pOut_len, align 8
  %add4 = add i64 %3, %2
  store i64 %add4, ptr %pOut_len, align 8
  %cmp5 = icmp eq i32 %phi.call, 0
  br i1 %cmp5, label %return, label %if.end7

if.end7:                                          ; preds = %if.end
  %add = add i64 %1, %src_buf_ofs.0
  %mul = shl i64 %out_buf_capacity.0, 1
  %spec.store.select = call i64 @llvm.umax.i64(i64 %mul, i64 128)
  %call11 = call ptr @realloc(ptr noundef %pBuf.0, i64 noundef %spec.store.select) #32
  %tobool12.not = icmp eq ptr %call11, null
  br i1 %tobool12.not, label %return.sink.split, label %for.cond

return.sink.split:                                ; preds = %if.end7, %cond.end
  call void @free(ptr noundef %pBuf.0) #30
  store i64 0, ptr %pOut_len, align 8
  br label %return

return:                                           ; preds = %if.end, %return.sink.split
  %retval.0 = phi ptr [ null, %return.sink.split ], [ %pBuf.0, %if.end ]
  ret ptr %retval.0
}